target datalayout = "e-m:e-p270:32:32-p271:32:32-p272:64:64-i64:64-i128:128-f80:128-n8:16:32:64-S128"
target triple = "x86_64-pc-linux-gnu"

%struct.b2Vec2 = type { float, float }
%struct.Camera = type { %struct.b2Vec2, float, i32, i32 }

; Function Attrs: inlinehint mustprogress nounwind uwtable
define linkonce_odr dso_local <2 x float> @_Z5b2Add6b2Vec2S_(<2 x float> %0, <2 x float> %1) #7 comdat {
  %3 = alloca %struct.b2Vec2, align 4
  %4 = alloca %struct.b2Vec2, align 4
  %5 = alloca %struct.b2Vec2, align 4
  store <2 x float> %0, ptr %4, align 4
  store <2 x float> %1, ptr %5, align 4
  %6 = getelementptr inbounds nuw %struct.b2Vec2, ptr %3, i32 0, i32 0
  %7 = getelementptr inbounds nuw %struct.b2Vec2, ptr %4, i32 0, i32 0
  %8 = load float, ptr %7, align 4, !tbaa !15
  %9 = getelementptr inbounds nuw %struct.b2Vec2, ptr %5, i32 0, i32 0
  %10 = load float, ptr %9, align 4, !tbaa !15
  %11 = fadd float %8, %10
  store float %11, ptr %6, align 4, !tbaa !15
  %12 = getelementptr inbounds nuw %struct.b2Vec2, ptr %3, i32 0, i32 1
  %13 = getelementptr inbounds nuw %struct.b2Vec2, ptr %4, i32 0, i32 1
  %14 = load float, ptr %13, align 4, !tbaa !16
  %15 = getelementptr inbounds nuw %struct.b2Vec2, ptr %5, i32 0, i32 1
  %16 = load float, ptr %15, align 4, !tbaa !16
  %17 = fadd float %14, %16
  store float %17, ptr %12, align 4, !tbaa !16
  %18 = load <2 x float>, ptr %3, align 4
  ret <2 x float> %18
}

; Function Attrs: inlinehint mustprogress nounwind uwtable
define linkonce_odr dso_local <2 x float> @_Z5b2Sub6b2Vec2S_(<2 x float> %0, <2 x float> %1) #7 comdat {
  %3 = alloca %struct.b2Vec2, align 4
  %4 = alloca %struct.b2Vec2, align 4
  %5 = alloca %struct.b2Vec2, align 4
  store <2 x float> %0, ptr %4, align 4
  store <2 x float> %1, ptr %5, align 4
  %6 = getelementptr inbounds nuw %struct.b2Vec2, ptr %3, i32 0, i32 0
  %7 = getelementptr inbounds nuw %struct.b2Vec2, ptr %4, i32 0, i32 0
  %8 = load float, ptr %7, align 4, !tbaa !15
  %9 = getelementptr inbounds nuw %struct.b2Vec2, ptr %5, i32 0, i32 0
  %10 = load float, ptr %9, align 4, !tbaa !15
  %11 = fsub float %8, %10
  store float %11, ptr %6, align 4, !tbaa !15
  %12 = getelementptr inbounds nuw %struct.b2Vec2, ptr %3, i32 0, i32 1
  %13 = getelementptr inbounds nuw %struct.b2Vec2, ptr %4, i32 0, i32 1
  %14 = load float, ptr %13, align 4, !tbaa !16
  %15 = getelementptr inbounds nuw %struct.b2Vec2, ptr %5, i32 0, i32 1
  %16 = load float, ptr %15, align 4, !tbaa !16
  %17 = fsub float %14, %16
  store float %17, ptr %12, align 4, !tbaa !16
  %18 = load <2 x float>, ptr %3, align 4
  ret <2 x float> %18
}

; Function Attrs: mustprogress uwtable
define dso_local void @_ZN6Camera21BuildProjectionMatrixEPff(ptr noundef nonnull align 4 dereferenceable(20) %0, ptr noundef %1, float noundef %2) #6 align 2 {
  %4 = alloca ptr, align 8
  %5 = alloca ptr, align 8
  %6 = alloca float, align 4
  %7 = alloca float, align 4
  %8 = alloca %struct.b2Vec2, align 4
  %9 = alloca %struct.b2Vec2, align 4
  %10 = alloca %struct.b2Vec2, align 4
  %11 = alloca %struct.b2Vec2, align 4
  %12 = alloca %struct.b2Vec2, align 4
  %13 = alloca %struct.b2Vec2, align 4
  %14 = alloca %struct.b2Vec2, align 4
  %15 = alloca float, align 4
  %16 = alloca float, align 4
  store ptr %0, ptr %4, align 8, !tbaa !4
  store ptr %1, ptr %5, align 8, !tbaa !20
  store float %2, ptr %6, align 4, !tbaa !18
  %17 = load ptr, ptr %4, align 8
  call void @llvm.lifetime.start.p0(i64 4, ptr %7) #1
  %18 = getelementptr inbounds nuw %struct.Camera, ptr %17, i32 0, i32 2
  %19 = load i32, ptr %18, align 4, !tbaa !9
  %20 = sitofp i32 %19 to float
  %21 = getelementptr inbounds nuw %struct.Camera, ptr %17, i32 0, i32 3
  %22 = load i32, ptr %21, align 4, !tbaa !14
  %23 = sitofp i32 %22 to float
  %24 = fdiv float %20, %23
  store float %24, ptr %7, align 4, !tbaa !18
  call void @llvm.lifetime.start.p0(i64 8, ptr %8) #1
  %25 = getelementptr inbounds nuw %struct.b2Vec2, ptr %8, i32 0, i32 0
  %26 = getelementptr inbounds nuw %struct.Camera, ptr %17, i32 0, i32 1
  %27 = load float, ptr %26, align 4, !tbaa !19
  %28 = load float, ptr %7, align 4, !tbaa !18
  %29 = fmul float %27, %28
  store float %29, ptr %25, align 4, !tbaa !15
  %30 = getelementptr inbounds nuw %struct.b2Vec2, ptr %8, i32 0, i32 1
  %31 = getelementptr inbounds nuw %struct.Camera, ptr %17, i32 0, i32 1
  %32 = load float, ptr %31, align 4, !tbaa !19
  store float %32, ptr %30, align 4, !tbaa !16
  call void @llvm.lifetime.start.p0(i64 8, ptr %9) #1
  %33 = getelementptr inbounds nuw %struct.Camera, ptr %17, i32 0, i32 0
  call void @llvm.memcpy.p0.p0.i64(ptr align 4 %10, ptr align 4 %33, i64 8, i1 false), !tbaa.struct !17
  call void @llvm.memcpy.p0.p0.i64(ptr align 4 %11, ptr align 4 %8, i64 8, i1 false), !tbaa.struct !17
  %34 = load <2 x float>, ptr %10, align 4
  %35 = load <2 x float>, ptr %11, align 4
  %36 = call <2 x float> @_Z5b2Sub6b2Vec2S_(<2 x float> %34, <2 x float> %35)
  store <2 x float> %36, ptr %9, align 4
  call void @llvm.lifetime.start.p0(i64 8, ptr %12) #1
  %37 = getelementptr inbounds nuw %struct.Camera, ptr %17, i32 0, i32 0
  call void @llvm.memcpy.p0.p0.i64(ptr align 4 %13, ptr align 4 %37, i64 8, i1 false), !tbaa.struct !17
  call void @llvm.memcpy.p0.p0.i64(ptr align 4 %14, ptr align 4 %8, i64 8, i1 false), !tbaa.struct !17
  %38 = load <2 x float>, ptr %13, align 4
  %39 = load <2 x float>, ptr %14, align 4
  %40 = call <2 x float> @_Z5b2Add6b2Vec2S_(<2 x float> %38, <2 x float> %39)
  store <2 x float> %40, ptr %12, align 4
  call void @llvm.lifetime.start.p0(i64 4, ptr %15) #1
  %41 = getelementptr inbounds nuw %struct.b2Vec2, ptr %12, i32 0, i32 0
  %42 = load float, ptr %41, align 4, !tbaa !15
  %43 = getelementptr inbounds nuw %struct.b2Vec2, ptr %9, i32 0, i32 0
  %44 = load float, ptr %43, align 4, !tbaa !15
  %45 = fsub float %42, %44
  store float %45, ptr %15, align 4, !tbaa !18
  call void @llvm.lifetime.start.p0(i64 4, ptr %16) #1
  %46 = getelementptr inbounds nuw %struct.b2Vec2, ptr %12, i32 0, i32 1
  %47 = load float, ptr %46, align 4, !tbaa !16
  %48 = getelementptr inbounds nuw %struct.b2Vec2, ptr %9, i32 0, i32 1
  %49 = load float, ptr %48, align 4, !tbaa !16
  %50 = fsub float %47, %49
  store float %50, ptr %16, align 4, !tbaa !18
  %51 = load float, ptr %15, align 4, !tbaa !18
  %52 = fdiv float 2.000000e+00, %51
  %53 = load ptr, ptr %5, align 8, !tbaa !20
  %54 = getelementptr inbounds float, ptr %53, i64 0
  store float %52, ptr %54, align 4, !tbaa !18
  %55 = load ptr, ptr %5, align 8, !tbaa !20
  %56 = getelementptr inbounds float, ptr %55, i64 1
  store float 0.000000e+00, ptr %56, align 4, !tbaa !18
  %57 = load ptr, ptr %5, align 8, !tbaa !20
  %58 = getelementptr inbounds float, ptr %57, i64 2
  store float 0.000000e+00, ptr %58, align 4, !tbaa !18
  %59 = load ptr, ptr %5, align 8, !tbaa !20
  %60 = getelementptr inbounds float, ptr %59, i64 3
  store float 0.000000e+00, ptr %60, align 4, !tbaa !18
  %61 = load ptr, ptr %5, align 8, !tbaa !20
  %62 = getelementptr inbounds float, ptr %61, i64 4
  store float 0.000000e+00, ptr %62, align 4, !tbaa !18
  %63 = load float, ptr %16, align 4, !tbaa !18
  %64 = fdiv float 2.000000e+00, %63
  %65 = load ptr, ptr %5, align 8, !tbaa !20
  %66 = getelementptr inbounds float, ptr %65, i64 5
  store float %64, ptr %66, align 4, !tbaa !18
  %67 = load ptr, ptr %5, align 8, !tbaa !20
  %68 = getelementptr inbounds float, ptr %67, i64 6
  store float 0.000000e+00, ptr %68, align 4, !tbaa !18
  %69 = load ptr, ptr %5, align 8, !tbaa !20
  %70 = getelementptr inbounds float, ptr %69, i64 7
  store float 0.000000e+00, ptr %70, align 4, !tbaa !18
  %71 = load ptr, ptr %5, align 8, !tbaa !20
  %72 = getelementptr inbounds float, ptr %71, i64 8
  store float 0.000000e+00, ptr %72, align 4, !tbaa !18
  %73 = load ptr, ptr %5, align 8, !tbaa !20
  %74 = getelementptr inbounds float, ptr %73, i64 9
  store float 0.000000e+00, ptr %74, align 4, !tbaa !18
  %75 = load ptr, ptr %5, align 8, !tbaa !20
  %76 = getelementptr inbounds float, ptr %75, i64 10
  store float -1.000000e+00, ptr %76, align 4, !tbaa !18
  %77 = load ptr, ptr %5, align 8, !tbaa !20
  %78 = getelementptr inbounds float, ptr %77, i64 11
  store float 0.000000e+00, ptr %78, align 4, !tbaa !18
  %79 = getelementptr inbounds nuw %struct.Camera, ptr %17, i32 0, i32 0
  %80 = getelementptr inbounds nuw %struct.b2Vec2, ptr %79, i32 0, i32 0
  %81 = load float, ptr %80, align 4, !tbaa !22
  %82 = fmul float -2.000000e+00, %81
  %83 = load float, ptr %15, align 4, !tbaa !18
  %84 = fdiv float %82, %83
  %85 = load ptr, ptr %5, align 8, !tbaa !20
  %86 = getelementptr inbounds float, ptr %85, i64 12
  store float %84, ptr %86, align 4, !tbaa !18
  %87 = getelementptr inbounds nuw %struct.Camera, ptr %17, i32 0, i32 0
  %88 = getelementptr inbounds nuw %struct.b2Vec2, ptr %87, i32 0, i32 1
  %89 = load float, ptr %88, align 4, !tbaa !23
  %90 = fmul float -2.000000e+00, %89
  %91 = load float, ptr %16, align 4, !tbaa !18
  %92 = fdiv float %90, %91
  %93 = load ptr, ptr %5, align 8, !tbaa !20
  %94 = getelementptr inbounds float, ptr %93, i64 13
  store float %92, ptr %94, align 4, !tbaa !18
  %95 = load float, ptr %6, align 4, !tbaa !18
  %96 = load ptr, ptr %5, align 8, !tbaa !20
  %97 = getelementptr inbounds float, ptr %96, i64 14
  store float %95, ptr %97, align 4, !tbaa !18
  %98 = load ptr, ptr %5, align 8, !tbaa !20
  %99 = getelementptr inbounds float, ptr %98, i64 15
  store float 1.000000e+00, ptr %99, align 4, !tbaa !18
  call void @llvm.lifetime.end.p0(i64 4, ptr %16) #1
  call void @llvm.lifetime.end.p0(i64 4, ptr %15) #1
  call void @llvm.lifetime.end.p0(i64 8, ptr %12) #1
  call void @llvm.lifetime.end.p0(i64 8, ptr %9) #1
  call void @llvm.lifetime.end.p0(i64 8, ptr %8) #1
  call void @llvm.lifetime.end.p0(i64 4, ptr %7) #1
  ret void
}