; Function Attrs: mustprogress nofree norecurse nosync nounwind willreturn memory(argmem: readwrite) uwtable
define dso_local void @_ZN6Camera21BuildProjectionMatrixEPff(ptr noundef nonnull readonly align 4 captures(none) dereferenceable(20) %0, ptr noundef writeonly captures(none) initializes((0, 64)) %1, float noundef %2) local_unnamed_addr #4 align 2 {
  %4 = getelementptr inbounds nuw i8, ptr %0, i64 12
  %5 = load i32, ptr %4, align 4, !tbaa !4
  %6 = sitofp i32 %5 to float
  %7 = getelementptr inbounds nuw i8, ptr %0, i64 16
  %8 = load i32, ptr %7, align 4, !tbaa !11
  %9 = sitofp i32 %8 to float
  %10 = fdiv float %6, %9
  %11 = getelementptr inbounds nuw i8, ptr %0, i64 8
  %12 = load float, ptr %11, align 4, !tbaa !13
  %13 = fmul float %12, %10
  %.sroa.07.0.copyload = load <2 x float>, ptr %0, align 4
  %.sroa.01.0.vec.extract.i = extractelement <2 x float> %.sroa.07.0.copyload, i64 0
  %14 = fsub float %.sroa.01.0.vec.extract.i, %13
  %.sroa.01.4.vec.extract.i = extractelement <2 x float> %.sroa.07.0.copyload, i64 1
  %15 = fsub float %.sroa.01.4.vec.extract.i, %12
  %16 = fadd float %.sroa.01.0.vec.extract.i, %13
  %17 = fadd float %12, %.sroa.01.4.vec.extract.i
  %18 = fsub float %16, %14
  %19 = fsub float %17, %15
  %20 = fdiv float 2.000000e+00, %18
  store float %20, ptr %1, align 4, !tbaa !12
  %21 = getelementptr inbounds nuw i8, ptr %1, i64 4
  %22 = fdiv float 2.000000e+00, %19
  %23 = getelementptr inbounds nuw i8, ptr %1, i64 20
  tail call void @llvm.memset.p0.i64(ptr noundef nonnull align 4 dereferenceable(16) %21, i8 0, i64 16, i1 false)
  store float %22, ptr %23, align 4, !tbaa !12
  %24 = getelementptr inbounds nuw i8, ptr %1, i64 24
  %25 = getelementptr inbounds nuw i8, ptr %1, i64 40
  tail call void @llvm.memset.p0.i64(ptr noundef nonnull align 4 dereferenceable(16) %24, i8 0, i64 16, i1 false)
  store float -1.000000e+00, ptr %25, align 4, !tbaa !12
  %26 = getelementptr inbounds nuw i8, ptr %1, i64 44
  store float 0.000000e+00, ptr %26, align 4, !tbaa !12
  %27 = load float, ptr %0, align 4, !tbaa !14
  %28 = fmul float %27, -2.000000e+00
  %29 = fdiv float %28, %18
  %30 = getelementptr inbounds nuw i8, ptr %1, i64 48
  store float %29, ptr %30, align 4, !tbaa !12
  %31 = getelementptr inbounds nuw i8, ptr %0, i64 4
  %32 = load float, ptr %31, align 4, !tbaa !15
  %33 = fmul float %32, -2.000000e+00
  %34 = fdiv float %33, %19
  %35 = getelementptr inbounds nuw i8, ptr %1, i64 52
  store float %34, ptr %35, align 4, !tbaa !12
  %36 = getelementptr inbounds nuw i8, ptr %1, i64 56
  store float %2, ptr %36, align 4, !tbaa !12
  %37 = getelementptr inbounds nuw i8, ptr %1, i64 60
  store float 1.000000e+00, ptr %37, align 4, !tbaa !12
  ret void
}